target datalayout = "e-m:e-p270:32:32-p271:32:32-p272:64:64-i64:64-i128:128-f80:128-n8:16:32:64-S128"
target triple = "x86_64-pc-linux-gnu"

%"class.tbb::detail::r1::affinity_helper" = type <{ ptr, i32, [4 x i8] }>

; Function Attrs: mustprogress nounwind sspstrong uwtable
define void @_ZN3tbb6detail2r115affinity_helper7dismissEv(ptr noundef nonnull align 8 dereferenceable(12) %0) #0 align 2 {
  %2 = alloca ptr, align 8
  store ptr %0, ptr %2, align 8, !tbaa !7
  %3 = load ptr, ptr %2, align 8
  %4 = getelementptr inbounds nuw %"class.tbb::detail::r1::affinity_helper", ptr %3, i32 0, i32 0
  %5 = load ptr, ptr %4, align 8, !tbaa !9
  %6 = icmp eq ptr %5, null
  br i1 %6, label %8, label %7

7:                                                ; preds = %1
  call void @_ZdaPv(ptr noundef %5) #14
  br label %8

8:                                                ; preds = %7, %1
  %9 = getelementptr inbounds nuw %"class.tbb::detail::r1::affinity_helper", ptr %3, i32 0, i32 0
  store ptr null, ptr %9, align 8, !tbaa !9
  %10 = getelementptr inbounds nuw %"class.tbb::detail::r1::affinity_helper", ptr %3, i32 0, i32 1
  store i32 0, ptr %10, align 8, !tbaa !12
  ret void
}