; Function Attrs: mustprogress nounwind sspstrong uwtable
define void @_ZN3tbb6detail2r115affinity_helper7dismissEv(ptr noundef nonnull align 8 captures(none) dereferenceable(12) initializes((8, 12)) %0) local_unnamed_addr #0 align 2 {
  %2 = load ptr, ptr %0, align 8, !tbaa !7
  %3 = icmp eq ptr %2, null
  br i1 %3, label %5, label %4

4:                                                ; preds = %1
  tail call void @_ZdaPv(ptr noundef nonnull %2) #14
  br label %5

5:                                                ; preds = %4, %1
  store ptr null, ptr %0, align 8, !tbaa !7
  %6 = getelementptr inbounds nuw i8, ptr %0, i64 8
  store i32 0, ptr %6, align 8, !tbaa !10
  ret void
}